(dp0
S'adaboost_stumps_500_95_custom'
p1
(ccopy_reg
_reconstructor
p2
(csklearn.ensemble.weight_boosting
AdaBoostClassifier
p3
c__builtin__
object
p4
Ntp5
Rp6
(dp7
S'base_estimator'
p8
g2
(csklearn.tree.tree
DecisionTreeClassifier
p9
g4
Ntp10
Rp11
(dp12
S'presort'
p13
I00
sS'splitter'
p14
S'best'
p15
sS'tree_'
p16
NsS'n_features_'
p17
NsS'n_outputs_'
p18
NsS'n_classes_'
p19
NsS'min_impurity_split'
p20
F1e-07
sS'classes_'
p21
NsS'max_features_'
p22
NsS'min_samples_leaf'
p23
I1
sS'min_samples_split'
p24
I2
sS'random_state'
p25
NsS'criterion'
p26
S'gini'
p27
sS'min_weight_fraction_leaf'
p28
F0.0
sS'max_leaf_nodes'
p29
NsS'max_features'
p30
NsS'_sklearn_version'
p31
S'0.18.1'
p32
sS'max_depth'
p33
I1
sS'class_weight'
p34
NsbsS'estimators_'
p35
(lp36
sS'algorithm'
p37
S'SAMME.R'
p38
sS'learning_rate'
p39
F1.0
sS'n_estimators'
p40
I500
sg25
Nsg31
g32
sS'estimator_params'
p41
(tsb(lp42
F9.5
aF1.0
aF1.0
aF1.0
aF1.0
aF1.0
aF1.0
atp43
sS'adaboost_stumps_500_80_custom'
p44
(g2
(g3
g4
Ntp45
Rp46
(dp47
g8
g11
sg35
(lp48
sg37
g38
sg39
F1.0
sg40
I500
sg25
Nsg31
g32
sg41
(tsb(lp49
F8.0
aF1.0
aF1.0
aF1.0
aF1.0
aF1.0
aF1.0
atp50
sS'adaboost_stumps_1000_80_custom'
p51
(g2
(g3
g4
Ntp52
Rp53
(dp54
g8
g11
sg35
(lp55
sg37
g38
sg39
F1.0
sg40
I1000
sg25
Nsg31
g32
sg41
(tsb(lp56
F8.0
aF1.0
aF1.0
aF1.0
aF1.0
aF1.0
aF1.0
atp57
sS'adaboost_stumps_1000_70_custom'
p58
(g2
(g3
g4
Ntp59
Rp60
(dp61
g8
g11
sg35
(lp62
sg37
g38
sg39
F1.0
sg40
I1000
sg25
Nsg31
g32
sg41
(tsb(lp63
F7.0
aF1.0
aF1.0
aF1.0
aF1.0
aF1.0
aF1.0
atp64
sS'adaboost_stumps_500_65_custom'
p65
(g2
(g3
g4
Ntp66
Rp67
(dp68
g8
g11
sg35
(lp69
sg37
g38
sg39
F1.0
sg40
I500
sg25
Nsg31
g32
sg41
(tsb(lp70
F6.5
aF1.0
aF1.0
aF1.0
aF1.0
aF1.0
aF1.0
atp71
sS'adaboost_stumps_1000_65_custom'
p72
(g2
(g3
g4
Ntp73
Rp74
(dp75
g8
g11
sg35
(lp76
sg37
g38
sg39
F1.0
sg40
I1000
sg25
Nsg31
g32
sg41
(tsb(lp77
F6.5
aF1.0
aF1.0
aF1.0
aF1.0
aF1.0
aF1.0
atp78
sS'adaboost_stumps_1000_95_custom'
p79
(g2
(g3
g4
Ntp80
Rp81
(dp82
g8
g11
sg35
(lp83
sg37
g38
sg39
F1.0
sg40
I1000
sg25
Nsg31
g32
sg41
(tsb(lp84
F9.5
aF1.0
aF1.0
aF1.0
aF1.0
aF1.0
aF1.0
atp85
sS'adaboost_stumps_300_65_custom'
p86
(g2
(g3
g4
Ntp87
Rp88
(dp89
g8
g11
sg35
(lp90
sg37
g38
sg39
F1.0
sg40
I300
sg25
Nsg31
g32
sg41
(tsb(lp91
F6.5
aF1.0
aF1.0
aF1.0
aF1.0
aF1.0
aF1.0
atp92
sS'adaboost_logreg_50_10_custom'
p93
(g2
(g3
g4
Ntp94
Rp95
(dp96
g8
g2
(csklearn.linear_model.logistic
LogisticRegression
p97
g4
Ntp98
Rp99
(dp100
S'warm_start'
p101
I00
sS'C'
p102
F1.0
sS'n_jobs'
p103
I8
sS'verbose'
p104
I0
sS'fit_intercept'
p105
I01
sS'max_iter'
p106
I100
sg34
NsS'penalty'
p107
S'l2'
p108
sS'multi_class'
p109
S'ovr'
p110
sg25
Nsg31
g32
sS'dual'
p111
I00
sS'tol'
p112
F0.0001
sS'solver'
p113
S'newton-cg'
p114
sS'intercept_scaling'
p115
I1
sbsg35
(lp116
sg37
g38
sg39
F1.0
sg40
I50
sg25
Nsg31
g32
sg41
(tsb(lp117
F1.0
aF1.0
aF1.0
aF1.0
aF1.0
aF1.0
aF1.0
atp118
sS'adaboost_logreg_100_50_custom'
p119
(g2
(g3
g4
Ntp120
Rp121
(dp122
g8
g2
(g97
g4
Ntp123
Rp124
(dp125
g101
I00
sg102
F1.0
sg103
I8
sg104
I0
sg105
I01
sg106
I100
sg34
Nsg107
g108
sg109
g110
sg25
Nsg31
g32
sg111
I00
sg112
F0.0001
sg113
g114
sg115
I1
sbsg35
(lp126
sg37
g38
sg39
F1.0
sg40
I100
sg25
Nsg31
g32
sg41
(tsb(lp127
F5.0
aF1.0
aF1.0
aF1.0
aF1.0
aF1.0
aF1.0
atp128
sS'adaboost_stumps_1000_45_custom'
p129
(g2
(g3
g4
Ntp130
Rp131
(dp132
g8
g11
sg35
(lp133
sg37
g38
sg39
F1.0
sg40
I1000
sg25
Nsg31
g32
sg41
(tsb(lp134
F4.5
aF1.0
aF1.0
aF1.0
aF1.0
aF1.0
aF1.0
atp135
sS'adaboost_logreg_200_40_custom'
p136
(g2
(g3
g4
Ntp137
Rp138
(dp139
g8
g2
(g97
g4
Ntp140
Rp141
(dp142
g101
I00
sg102
F1.0
sg103
I8
sg104
I0
sg105
I01
sg106
I100
sg34
Nsg107
g108
sg109
g110
sg25
Nsg31
g32
sg111
I00
sg112
F0.0001
sg113
g114
sg115
I1
sbsg35
(lp143
sg37
g38
sg39
F1.0
sg40
I200
sg25
Nsg31
g32
sg41
(tsb(lp144
F4.0
aF1.0
aF1.0
aF1.0
aF1.0
aF1.0
aF1.0
atp145
sS'adaboost_logreg_100_30_custom'
p146
(g2
(g3
g4
Ntp147
Rp148
(dp149
g8
g2
(g97
g4
Ntp150
Rp151
(dp152
g101
I00
sg102
F1.0
sg103
I8
sg104
I0
sg105
I01
sg106
I100
sg34
Nsg107
g108
sg109
g110
sg25
Nsg31
g32
sg111
I00
sg112
F0.0001
sg113
g114
sg115
I1
sbsg35
(lp153
sg37
g38
sg39
F1.0
sg40
I100
sg25
Nsg31
g32
sg41
(tsb(lp154
F3.0
aF1.0
aF1.0
aF1.0
aF1.0
aF1.0
aF1.0
atp155
sS'adaboost_stumps_500_90_custom'
p156
(g2
(g3
g4
Ntp157
Rp158
(dp159
g8
g11
sg35
(lp160
sg37
g38
sg39
F1.0
sg40
I500
sg25
Nsg31
g32
sg41
(tsb(lp161
F9.0
aF1.0
aF1.0
aF1.0
aF1.0
aF1.0
aF1.0
atp162
sS'adaboost_logreg_200_60_custom'
p163
(g2
(g3
g4
Ntp164
Rp165
(dp166
g8
g2
(g97
g4
Ntp167
Rp168
(dp169
g101
I00
sg102
F1.0
sg103
I8
sg104
I0
sg105
I01
sg106
I100
sg34
Nsg107
g108
sg109
g110
sg25
Nsg31
g32
sg111
I00
sg112
F0.0001
sg113
g114
sg115
I1
sbsg35
(lp170
sg37
g38
sg39
F1.0
sg40
I200
sg25
Nsg31
g32
sg41
(tsb(lp171
F6.0
aF1.0
aF1.0
aF1.0
aF1.0
aF1.0
aF1.0
atp172
sS'adaboost_stumps_500_60_custom'
p173
(g2
(g3
g4
Ntp174
Rp175
(dp176
g8
g11
sg35
(lp177
sg37
g38
sg39
F1.0
sg40
I500
sg25
Nsg31
g32
sg41
(tsb(lp178
F6.0
aF1.0
aF1.0
aF1.0
aF1.0
aF1.0
aF1.0
atp179
sS'adaboost_stumps_1000_75_custom'
p180
(g2
(g3
g4
Ntp181
Rp182
(dp183
g8
g11
sg35
(lp184
sg37
g38
sg39
F1.0
sg40
I1000
sg25
Nsg31
g32
sg41
(tsb(lp185
F7.5
aF1.0
aF1.0
aF1.0
aF1.0
aF1.0
aF1.0
atp186
sS'adaboost_stumps_1000_85_custom'
p187
(g2
(g3
g4
Ntp188
Rp189
(dp190
g8
g11
sg35
(lp191
sg37
g38
sg39
F1.0
sg40
I1000
sg25
Nsg31
g32
sg41
(tsb(lp192
F8.5
aF1.0
aF1.0
aF1.0
aF1.0
aF1.0
aF1.0
atp193
sS'adaboost_stumps_300_55_custom'
p194
(g2
(g3
g4
Ntp195
Rp196
(dp197
g8
g11
sg35
(lp198
sg37
g38
sg39
F1.0
sg40
I300
sg25
Nsg31
g32
sg41
(tsb(lp199
F5.5
aF1.0
aF1.0
aF1.0
aF1.0
aF1.0
aF1.0
atp200
sS'adaboost_logreg_100_20_custom'
p201
(g2
(g3
g4
Ntp202
Rp203
(dp204
g8
g2
(g97
g4
Ntp205
Rp206
(dp207
g101
I00
sg102
F1.0
sg103
I8
sg104
I0
sg105
I01
sg106
I100
sg34
Nsg107
g108
sg109
g110
sg25
Nsg31
g32
sg111
I00
sg112
F0.0001
sg113
g114
sg115
I1
sbsg35
(lp208
sg37
g38
sg39
F1.0
sg40
I100
sg25
Nsg31
g32
sg41
(tsb(lp209
F2.0
aF1.0
aF1.0
aF1.0
aF1.0
aF1.0
aF1.0
atp210
sS'adaboost_logreg_50_60_custom'
p211
(g2
(g3
g4
Ntp212
Rp213
(dp214
g8
g2
(g97
g4
Ntp215
Rp216
(dp217
g101
I00
sg102
F1.0
sg103
I8
sg104
I0
sg105
I01
sg106
I100
sg34
Nsg107
g108
sg109
g110
sg25
Nsg31
g32
sg111
I00
sg112
F0.0001
sg113
g114
sg115
I1
sbsg35
(lp218
sg37
g38
sg39
F1.0
sg40
I50
sg25
Nsg31
g32
sg41
(tsb(lp219
F6.0
aF1.0
aF1.0
aF1.0
aF1.0
aF1.0
aF1.0
atp220
sS'adaboost_logreg_100_40_custom'
p221
(g2
(g3
g4
Ntp222
Rp223
(dp224
g8
g2
(g97
g4
Ntp225
Rp226
(dp227
g101
I00
sg102
F1.0
sg103
I8
sg104
I0
sg105
I01
sg106
I100
sg34
Nsg107
g108
sg109
g110
sg25
Nsg31
g32
sg111
I00
sg112
F0.0001
sg113
g114
sg115
I1
sbsg35
(lp228
sg37
g38
sg39
F1.0
sg40
I100
sg25
Nsg31
g32
sg41
(tsb(lp229
F4.0
aF1.0
aF1.0
aF1.0
aF1.0
aF1.0
aF1.0
atp230
sS'adaboost_stumps_1000_55_custom'
p231
(g2
(g3
g4
Ntp232
Rp233
(dp234
g8
g11
sg35
(lp235
sg37
g38
sg39
F1.0
sg40
I1000
sg25
Nsg31
g32
sg41
(tsb(lp236
F5.5
aF1.0
aF1.0
aF1.0
aF1.0
aF1.0
aF1.0
atp237
sS'adaboost_stumps_300_75_custom'
p238
(g2
(g3
g4
Ntp239
Rp240
(dp241
g8
g11
sg35
(lp242
sg37
g38
sg39
F1.0
sg40
I300
sg25
Nsg31
g32
sg41
(tsb(lp243
F7.5
aF1.0
aF1.0
aF1.0
aF1.0
aF1.0
aF1.0
atp244
sS'adaboost_logreg_50_20_custom'
p245
(g2
(g3
g4
Ntp246
Rp247
(dp248
g8
g2
(g97
g4
Ntp249
Rp250
(dp251
g101
I00
sg102
F1.0
sg103
I8
sg104
I0
sg105
I01
sg106
I100
sg34
Nsg107
g108
sg109
g110
sg25
Nsg31
g32
sg111
I00
sg112
F0.0001
sg113
g114
sg115
I1
sbsg35
(lp252
sg37
g38
sg39
F1.0
sg40
I50
sg25
Nsg31
g32
sg41
(tsb(lp253
F2.0
aF1.0
aF1.0
aF1.0
aF1.0
aF1.0
aF1.0
atp254
sS'adaboost_stumps_500_50_custom'
p255
(g2
(g3
g4
Ntp256
Rp257
(dp258
g8
g11
sg35
(lp259
sg37
g38
sg39
F1.0
sg40
I500
sg25
Nsg31
g32
sg41
(tsb(lp260
F5.0
aF1.0
aF1.0
aF1.0
aF1.0
aF1.0
aF1.0
atp261
sS'adaboost_stumps_500_45_custom'
p262
(g2
(g3
g4
Ntp263
Rp264
(dp265
g8
g11
sg35
(lp266
sg37
g38
sg39
F1.0
sg40
I500
sg25
Nsg31
g32
sg41
(tsb(lp267
F4.5
aF1.0
aF1.0
aF1.0
aF1.0
aF1.0
aF1.0
atp268
sS'adaboost_logreg_200_10_custom'
p269
(g2
(g3
g4
Ntp270
Rp271
(dp272
g8
g2
(g97
g4
Ntp273
Rp274
(dp275
g101
I00
sg102
F1.0
sg103
I8
sg104
I0
sg105
I01
sg106
I100
sg34
Nsg107
g108
sg109
g110
sg25
Nsg31
g32
sg111
I00
sg112
F0.0001
sg113
g114
sg115
I1
sbsg35
(lp276
sg37
g38
sg39
F1.0
sg40
I200
sg25
Nsg31
g32
sg41
(tsb(lp277
F1.0
aF1.0
aF1.0
aF1.0
aF1.0
aF1.0
aF1.0
atp278
sS'adaboost_stumps_500_85_custom'
p279
(g2
(g3
g4
Ntp280
Rp281
(dp282
g8
g11
sg35
(lp283
sg37
g38
sg39
F1.0
sg40
I500
sg25
Nsg31
g32
sg41
(tsb(lp284
F8.5
aF1.0
aF1.0
aF1.0
aF1.0
aF1.0
aF1.0
atp285
sS'adaboost_stumps_300_95_custom'
p286
(g2
(g3
g4
Ntp287
Rp288
(dp289
g8
g11
sg35
(lp290
sg37
g38
sg39
F1.0
sg40
I300
sg25
Nsg31
g32
sg41
(tsb(lp291
F9.5
aF1.0
aF1.0
aF1.0
aF1.0
aF1.0
aF1.0
atp292
sS'adaboost_stumps_300_45_custom'
p293
(g2
(g3
g4
Ntp294
Rp295
(dp296
g8
g11
sg35
(lp297
sg37
g38
sg39
F1.0
sg40
I300
sg25
Nsg31
g32
sg41
(tsb(lp298
F4.5
aF1.0
aF1.0
aF1.0
aF1.0
aF1.0
aF1.0
atp299
sS'adaboost_logreg_50_30_custom'
p300
(g2
(g3
g4
Ntp301
Rp302
(dp303
g8
g2
(g97
g4
Ntp304
Rp305
(dp306
g101
I00
sg102
F1.0
sg103
I8
sg104
I0
sg105
I01
sg106
I100
sg34
Nsg107
g108
sg109
g110
sg25
Nsg31
g32
sg111
I00
sg112
F0.0001
sg113
g114
sg115
I1
sbsg35
(lp307
sg37
g38
sg39
F1.0
sg40
I50
sg25
Nsg31
g32
sg41
(tsb(lp308
F3.0
aF1.0
aF1.0
aF1.0
aF1.0
aF1.0
aF1.0
atp309
sS'adaboost_stumps_300_85_custom'
p310
(g2
(g3
g4
Ntp311
Rp312
(dp313
g8
g11
sg35
(lp314
sg37
g38
sg39
F1.0
sg40
I300
sg25
Nsg31
g32
sg41
(tsb(lp315
F8.5
aF1.0
aF1.0
aF1.0
aF1.0
aF1.0
aF1.0
atp316
sS'adaboost_stumps_300_70_custom'
p317
(g2
(g3
g4
Ntp318
Rp319
(dp320
g8
g11
sg35
(lp321
sg37
g38
sg39
F1.0
sg40
I300
sg25
Nsg31
g32
sg41
(tsb(lp322
F7.0
aF1.0
aF1.0
aF1.0
aF1.0
aF1.0
aF1.0
atp323
sS'adaboost_stumps_1000_50_custom'
p324
(g2
(g3
g4
Ntp325
Rp326
(dp327
g8
g11
sg35
(lp328
sg37
g38
sg39
F1.0
sg40
I1000
sg25
Nsg31
g32
sg41
(tsb(lp329
F5.0
aF1.0
aF1.0
aF1.0
aF1.0
aF1.0
aF1.0
atp330
sS'adaboost_stumps_300_50_custom'
p331
(g2
(g3
g4
Ntp332
Rp333
(dp334
g8
g11
sg35
(lp335
sg37
g38
sg39
F1.0
sg40
I300
sg25
Nsg31
g32
sg41
(tsb(lp336
F5.0
aF1.0
aF1.0
aF1.0
aF1.0
aF1.0
aF1.0
atp337
sS'adaboost_stumps_500_75_custom'
p338
(g2
(g3
g4
Ntp339
Rp340
(dp341
g8
g11
sg35
(lp342
sg37
g38
sg39
F1.0
sg40
I500
sg25
Nsg31
g32
sg41
(tsb(lp343
F7.5
aF1.0
aF1.0
aF1.0
aF1.0
aF1.0
aF1.0
atp344
sS'adaboost_logreg_200_50_custom'
p345
(g2
(g3
g4
Ntp346
Rp347
(dp348
g8
g2
(g97
g4
Ntp349
Rp350
(dp351
g101
I00
sg102
F1.0
sg103
I8
sg104
I0
sg105
I01
sg106
I100
sg34
Nsg107
g108
sg109
g110
sg25
Nsg31
g32
sg111
I00
sg112
F0.0001
sg113
g114
sg115
I1
sbsg35
(lp352
sg37
g38
sg39
F1.0
sg40
I200
sg25
Nsg31
g32
sg41
(tsb(lp353
F5.0
aF1.0
aF1.0
aF1.0
aF1.0
aF1.0
aF1.0
atp354
sS'adaboost_logreg_200_30_custom'
p355
(g2
(g3
g4
Ntp356
Rp357
(dp358
g8
g2
(g97
g4
Ntp359
Rp360
(dp361
g101
I00
sg102
F1.0
sg103
I8
sg104
I0
sg105
I01
sg106
I100
sg34
Nsg107
g108
sg109
g110
sg25
Nsg31
g32
sg111
I00
sg112
F0.0001
sg113
g114
sg115
I1
sbsg35
(lp362
sg37
g38
sg39
F1.0
sg40
I200
sg25
Nsg31
g32
sg41
(tsb(lp363
F3.0
aF1.0
aF1.0
aF1.0
aF1.0
aF1.0
aF1.0
atp364
sS'adaboost_stumps_500_55_custom'
p365
(g2
(g3
g4
Ntp366
Rp367
(dp368
g8
g11
sg35
(lp369
sg37
g38
sg39
F1.0
sg40
I500
sg25
Nsg31
g32
sg41
(tsb(lp370
F5.5
aF1.0
aF1.0
aF1.0
aF1.0
aF1.0
aF1.0
atp371
sS'adaboost_logreg_50_50_custom'
p372
(g2
(g3
g4
Ntp373
Rp374
(dp375
g8
g2
(g97
g4
Ntp376
Rp377
(dp378
g101
I00
sg102
F1.0
sg103
I8
sg104
I0
sg105
I01
sg106
I100
sg34
Nsg107
g108
sg109
g110
sg25
Nsg31
g32
sg111
I00
sg112
F0.0001
sg113
g114
sg115
I1
sbsg35
(lp379
sg37
g38
sg39
F1.0
sg40
I50
sg25
Nsg31
g32
sg41
(tsb(lp380
F5.0
aF1.0
aF1.0
aF1.0
aF1.0
aF1.0
aF1.0
atp381
sS'adaboost_logreg_100_10_custom'
p382
(g2
(g3
g4
Ntp383
Rp384
(dp385
g8
g2
(g97
g4
Ntp386
Rp387
(dp388
g101
I00
sg102
F1.0
sg103
I8
sg104
I0
sg105
I01
sg106
I100
sg34
Nsg107
g108
sg109
g110
sg25
Nsg31
g32
sg111
I00
sg112
F0.0001
sg113
g114
sg115
I1
sbsg35
(lp389
sg37
g38
sg39
F1.0
sg40
I100
sg25
Nsg31
g32
sg41
(tsb(lp390
F1.0
aF1.0
aF1.0
aF1.0
aF1.0
aF1.0
aF1.0
atp391
sS'adaboost_stumps_1000_90_custom'
p392
(g2
(g3
g4
Ntp393
Rp394
(dp395
g8
g11
sg35
(lp396
sg37
g38
sg39
F1.0
sg40
I1000
sg25
Nsg31
g32
sg41
(tsb(lp397
F9.0
aF1.0
aF1.0
aF1.0
aF1.0
aF1.0
aF1.0
atp398
sS'adaboost_stumps_300_80_custom'
p399
(g2
(g3
g4
Ntp400
Rp401
(dp402
g8
g11
sg35
(lp403
sg37
g38
sg39
F1.0
sg40
I300
sg25
Nsg31
g32
sg41
(tsb(lp404
F8.0
aF1.0
aF1.0
aF1.0
aF1.0
aF1.0
aF1.0
atp405
sS'adaboost_stumps_300_60_custom'
p406
(g2
(g3
g4
Ntp407
Rp408
(dp409
g8
g11
sg35
(lp410
sg37
g38
sg39
F1.0
sg40
I300
sg25
Nsg31
g32
sg41
(tsb(lp411
F6.0
aF1.0
aF1.0
aF1.0
aF1.0
aF1.0
aF1.0
atp412
sS'adaboost_logreg_100_60_custom'
p413
(g2
(g3
g4
Ntp414
Rp415
(dp416
g8
g2
(g97
g4
Ntp417
Rp418
(dp419
g101
I00
sg102
F1.0
sg103
I8
sg104
I0
sg105
I01
sg106
I100
sg34
Nsg107
g108
sg109
g110
sg25
Nsg31
g32
sg111
I00
sg112
F0.0001
sg113
g114
sg115
I1
sbsg35
(lp420
sg37
g38
sg39
F1.0
sg40
I100
sg25
Nsg31
g32
sg41
(tsb(lp421
F6.0
aF1.0
aF1.0
aF1.0
aF1.0
aF1.0
aF1.0
atp422
sS'adaboost_stumps_1000_60_custom'
p423
(g2
(g3
g4
Ntp424
Rp425
(dp426
g8
g11
sg35
(lp427
sg37
g38
sg39
F1.0
sg40
I1000
sg25
Nsg31
g32
sg41
(tsb(lp428
F6.0
aF1.0
aF1.0
aF1.0
aF1.0
aF1.0
aF1.0
atp429
sS'adaboost_stumps_500_70_custom'
p430
(g2
(g3
g4
Ntp431
Rp432
(dp433
g8
g11
sg35
(lp434
sg37
g38
sg39
F1.0
sg40
I500
sg25
Nsg31
g32
sg41
(tsb(lp435
F7.0
aF1.0
aF1.0
aF1.0
aF1.0
aF1.0
aF1.0
atp436
sS'adaboost_logreg_200_20_custom'
p437
(g2
(g3
g4
Ntp438
Rp439
(dp440
g8
g2
(g97
g4
Ntp441
Rp442
(dp443
g101
I00
sg102
F1.0
sg103
I8
sg104
I0
sg105
I01
sg106
I100
sg34
Nsg107
g108
sg109
g110
sg25
Nsg31
g32
sg111
I00
sg112
F0.0001
sg113
g114
sg115
I1
sbsg35
(lp444
sg37
g38
sg39
F1.0
sg40
I200
sg25
Nsg31
g32
sg41
(tsb(lp445
F2.0
aF1.0
aF1.0
aF1.0
aF1.0
aF1.0
aF1.0
atp446
sS'adaboost_stumps_300_90_custom'
p447
(g2
(g3
g4
Ntp448
Rp449
(dp450
g8
g11
sg35
(lp451
sg37
g38
sg39
F1.0
sg40
I300
sg25
Nsg31
g32
sg41
(tsb(lp452
F9.0
aF1.0
aF1.0
aF1.0
aF1.0
aF1.0
aF1.0
atp453
sS'adaboost_logreg_50_40_custom'
p454
(g2
(g3
g4
Ntp455
Rp456
(dp457
g8
g2
(g97
g4
Ntp458
Rp459
(dp460
g101
I00
sg102
F1.0
sg103
I8
sg104
I0
sg105
I01
sg106
I100
sg34
Nsg107
g108
sg109
g110
sg25
Nsg31
g32
sg111
I00
sg112
F0.0001
sg113
g114
sg115
I1
sbsg35
(lp461
sg37
g38
sg39
F1.0
sg40
I50
sg25
Nsg31
g32
sg41
(tsb(lp462
F4.0
aF1.0
aF1.0
aF1.0
aF1.0
aF1.0
aF1.0
atp463
s.