ccopy_reg
_reconstructor
p0
(csklearn.preprocessing.data
StandardScaler
p1
c__builtin__
object
p2
Ntp3
Rp4
(dp5
S'mean_'
p6
cnumpy.core.multiarray
_reconstruct
p7
(cnumpy
ndarray
p8
(I0
tp9
S'b'
p10
tp11
Rp12
(I1
(I5
tp13
cnumpy
dtype
p14
(S'f8'
p15
I0
I1
tp16
Rp17
(I3
S'<'
p18
NNNI-1
I-1
I0
tp19
bI00
S'V\xd1\x1b\xf0"\xa7\xa8?\x88}Kt\xe9\xa7Z?\xc0K{+{W\xf4?#\x1a\xf2\x1f\x8fV\xc1?L\xe7B\xc7S\x7f@@'
p20
tp21
bsS'with_mean'
p22
I01
sS'fit'
p23
csrc.misc
frozen
p24
sS'_sklearn_version'
p25
S'0.18.1'
p26
sS'var_'
p27
g7
(g8
(I0
tp28
g10
tp29
Rp30
(I1
(I5
tp31
g17
I00
S'\xd0\x9a\x8b\x85\x06\x05\xaa?s@\x14\x1d\x99\xf6Z?\x8em\xa5K&q\xfe?\x97)\x93\xc0\xa5P\xc4?V\xf2\xed\xd0\xa53\x8a@'
p32
tp33
bsS'scale_'
p34
g7
(g8
(I0
tp35
g10
tp36
Rp37
(I1
(I5
tp38
g17
I00
S'q\xa5*\xc4\xf4\xda\xcc?D+Vt=\xc5\xa4?\x1b4\xb4$\xd8\x11\xf6?f}}\xbb&\x7f\xd9?z,\x14=\xc3\xf4<@'
p39
tp40
bsS'with_std'
p41
I01
sS'set_params'
p42
g24
sS'n_samples_seen_'
p43
I186853
sS'fit_transform'
p44
g24
sS'copy'
p45
I01
sb.